(dp0
S'alert_models'
p1
(lp2
S'MGAQ2LL/A'
p3
asS'target_stores'
p4
(lp5
VPentagon City
p6
aVClarendon
p7
aVGeorgetown
p8
aVTysons Corner
p9
aVFair Oaks
p10
aVReston
p11
asS'beep_models'
p12
(lp13
S'MGAL2LL/A'
p14
aS'MGAU2LL/A'
p15
aS'MGAP2LL/A'
p16
aS'MGAM2LL/A'
p17
aS'MGAV2LL/A'
p18
aS'MGAN2LL/A'
p19
aS'MGAW2LL/A'
p20
aS'MGAR2LL/A'
p21
asS'zip_code'
p22
S'22305'
p23
s.